target datalayout = "e-m:e-p270:32:32-p271:32:32-p272:64:64-i64:64-i128:128-f80:128-n8:16:32:64-S128"
target triple = "x86_64-pc-linux-gnu"

%struct.expert_field = type { i32, i32 }

@ei_gsm_a_bssmap_extraneous_data = internal global %struct.expert_field zeroinitializer, align 4
@.str.137 = private unnamed_addr constant [1 x i8] zeroinitializer, align 1
@ei_gsm_a_bssmap_missing_mandatory_element = internal global %struct.expert_field zeroinitializer, align 4
@.str.139 = private unnamed_addr constant [71 x i8] c"Missing Mandatory element (0x%02x) %s%s, rest of dissection is suspect\00", align 1
@.str.1123 = private unnamed_addr constant [16 x i8] c"(BSS Supported)\00", align 1

; Function Attrs: null_pointer_is_valid sspstrong uwtable
define internal void @bssmap_cl3_info(ptr noundef %0, ptr noundef %1, ptr noundef %2, i32 noundef %3, i32 noundef %4) #1 {
  %6 = alloca ptr, align 8
  %7 = alloca ptr, align 8
  %8 = alloca ptr, align 8
  %9 = alloca i32, align 4
  %10 = alloca i32, align 4
  %11 = alloca i32, align 4
  %12 = alloca i32, align 4
  %13 = alloca i32, align 4
  %14 = alloca i32, align 4
  store ptr %0, ptr %6, align 8
  store ptr %1, ptr %7, align 8
  store ptr %2, ptr %8, align 8
  store i32 %3, ptr %9, align 4
  store i32 %4, ptr %10, align 4
  call void @llvm.lifetime.start.p0(i64 4, ptr %11) #5
  call void @llvm.lifetime.start.p0(i64 4, ptr %12) #5
  call void @llvm.lifetime.start.p0(i64 4, ptr %13) #5
  %15 = load i32, ptr %9, align 4
  store i32 %15, ptr %12, align 4
  %16 = load i32, ptr %10, align 4
  store i32 %16, ptr %13, align 4
  %17 = load i32, ptr %13, align 4
  %18 = icmp sgt i32 %17, 0
  br i1 %18, label %19, label %35

19:                                               ; preds = %5
  %20 = load ptr, ptr %6, align 8
  %21 = load ptr, ptr %7, align 8
  %22 = load ptr, ptr %8, align 8
  %23 = load i32, ptr %12, align 4
  %24 = load i32, ptr %13, align 4
  %25 = call zeroext i16 @elem_tlv(ptr noundef %20, ptr noundef %21, ptr noundef %22, i8 noundef zeroext 5, i32 noundef 0, i32 noundef 5, i32 noundef %23, i32 noundef %24, ptr noundef null)
  %26 = zext i16 %25 to i32
  store i32 %26, ptr %11, align 4
  %27 = icmp ugt i32 %26, 0
  br i1 %27, label %28, label %35

28:                                               ; preds = %19
  %29 = load i32, ptr %11, align 4
  %30 = load i32, ptr %12, align 4
  %31 = add i32 %30, %29
  store i32 %31, ptr %12, align 4
  %32 = load i32, ptr %11, align 4
  %33 = load i32, ptr %13, align 4
  %34 = sub i32 %33, %32
  store i32 %34, ptr %13, align 4
  br label %42

35:                                               ; preds = %19, %5
  %36 = load ptr, ptr %7, align 8
  %37 = load ptr, ptr %8, align 8
  %38 = load ptr, ptr %6, align 8
  %39 = load i32, ptr %12, align 4
  %40 = call ptr @get_gsm_a_msg_string(i32 noundef 0, i32 noundef 5)
  %41 = call ptr (ptr, ptr, ptr, ptr, i32, i32, ptr, ...) @proto_tree_add_expert_format(ptr noundef %36, ptr noundef %37, ptr noundef @ei_gsm_a_bssmap_missing_mandatory_element, ptr noundef %38, i32 noundef %39, i32 noundef 0, ptr noundef @.str.139, i32 noundef 5, ptr noundef %40, ptr noundef @.str.137)
  br label %42

42:                                               ; preds = %35, %28
  %43 = load i32, ptr %13, align 4
  %44 = icmp sgt i32 %43, 0
  br i1 %44, label %45, label %61

45:                                               ; preds = %42
  %46 = load ptr, ptr %6, align 8
  %47 = load ptr, ptr %7, align 8
  %48 = load ptr, ptr %8, align 8
  %49 = load i32, ptr %12, align 4
  %50 = load i32, ptr %13, align 4
  %51 = call zeroext i16 @elem_tlv(ptr noundef %46, ptr noundef %47, ptr noundef %48, i8 noundef zeroext 23, i32 noundef 0, i32 noundef 23, i32 noundef %49, i32 noundef %50, ptr noundef null)
  %52 = zext i16 %51 to i32
  store i32 %52, ptr %11, align 4
  %53 = icmp ugt i32 %52, 0
  br i1 %53, label %54, label %61

54:                                               ; preds = %45
  %55 = load i32, ptr %11, align 4
  %56 = load i32, ptr %12, align 4
  %57 = add i32 %56, %55
  store i32 %57, ptr %12, align 4
  %58 = load i32, ptr %11, align 4
  %59 = load i32, ptr %13, align 4
  %60 = sub i32 %59, %58
  store i32 %60, ptr %13, align 4
  br label %68

61:                                               ; preds = %45, %42
  %62 = load ptr, ptr %7, align 8
  %63 = load ptr, ptr %8, align 8
  %64 = load ptr, ptr %6, align 8
  %65 = load i32, ptr %12, align 4
  %66 = call ptr @get_gsm_a_msg_string(i32 noundef 0, i32 noundef 23)
  %67 = call ptr (ptr, ptr, ptr, ptr, i32, i32, ptr, ...) @proto_tree_add_expert_format(ptr noundef %62, ptr noundef %63, ptr noundef @ei_gsm_a_bssmap_missing_mandatory_element, ptr noundef %64, i32 noundef %65, i32 noundef 0, ptr noundef @.str.139, i32 noundef 23, ptr noundef %66, ptr noundef @.str.137)
  br label %68

68:                                               ; preds = %61, %54
  %69 = load i32, ptr %13, align 4
  %70 = icmp sle i32 %69, 0
  br i1 %70, label %71, label %72

71:                                               ; preds = %68
  store i32 1, ptr %14, align 4
  br label %240

72:                                               ; preds = %68
  %73 = load ptr, ptr %6, align 8
  %74 = load ptr, ptr %7, align 8
  %75 = load ptr, ptr %8, align 8
  %76 = load i32, ptr %12, align 4
  %77 = call zeroext i16 @elem_tv(ptr noundef %73, ptr noundef %74, ptr noundef %75, i8 noundef zeroext 33, i32 noundef 0, i32 noundef 33, i32 noundef %76, ptr noundef null)
  %78 = zext i16 %77 to i32
  store i32 %78, ptr %11, align 4
  %79 = icmp ugt i32 %78, 0
  br i1 %79, label %80, label %87

80:                                               ; preds = %72
  %81 = load i32, ptr %11, align 4
  %82 = load i32, ptr %12, align 4
  %83 = add i32 %82, %81
  store i32 %83, ptr %12, align 4
  %84 = load i32, ptr %11, align 4
  %85 = load i32, ptr %13, align 4
  %86 = sub i32 %85, %84
  store i32 %86, ptr %13, align 4
  br label %87

87:                                               ; preds = %80, %72
  %88 = load i32, ptr %13, align 4
  %89 = icmp sle i32 %88, 0
  br i1 %89, label %90, label %91

90:                                               ; preds = %87
  store i32 1, ptr %14, align 4
  br label %240

91:                                               ; preds = %87
  %92 = load ptr, ptr %6, align 8
  %93 = load ptr, ptr %7, align 8
  %94 = load ptr, ptr %8, align 8
  %95 = load i32, ptr %12, align 4
  %96 = load i32, ptr %13, align 4
  %97 = call zeroext i16 @elem_tlv(ptr noundef %92, ptr noundef %93, ptr noundef %94, i8 noundef zeroext 60, i32 noundef 0, i32 noundef 60, i32 noundef %95, i32 noundef %96, ptr noundef null)
  %98 = zext i16 %97 to i32
  store i32 %98, ptr %11, align 4
  %99 = icmp ugt i32 %98, 0
  br i1 %99, label %100, label %107

100:                                              ; preds = %91
  %101 = load i32, ptr %11, align 4
  %102 = load i32, ptr %12, align 4
  %103 = add i32 %102, %101
  store i32 %103, ptr %12, align 4
  %104 = load i32, ptr %11, align 4
  %105 = load i32, ptr %13, align 4
  %106 = sub i32 %105, %104
  store i32 %106, ptr %13, align 4
  br label %107

107:                                              ; preds = %100, %91
  %108 = load i32, ptr %13, align 4
  %109 = icmp sle i32 %108, 0
  br i1 %109, label %110, label %111

110:                                              ; preds = %107
  store i32 1, ptr %14, align 4
  br label %240

111:                                              ; preds = %107
  %112 = load ptr, ptr %6, align 8
  %113 = load ptr, ptr %7, align 8
  %114 = load ptr, ptr %8, align 8
  %115 = load i32, ptr %12, align 4
  %116 = load i32, ptr %13, align 4
  %117 = call zeroext i16 @elem_tlv_e(ptr noundef %112, ptr noundef %113, ptr noundef %114, i8 noundef zeroext 73, i32 noundef 0, i32 noundef 73, i32 noundef %115, i32 noundef %116, ptr noundef null)
  %118 = zext i16 %117 to i32
  store i32 %118, ptr %11, align 4
  %119 = icmp ugt i32 %118, 0
  br i1 %119, label %120, label %127

120:                                              ; preds = %111
  %121 = load i32, ptr %11, align 4
  %122 = load i32, ptr %12, align 4
  %123 = add i32 %122, %121
  store i32 %123, ptr %12, align 4
  %124 = load i32, ptr %11, align 4
  %125 = load i32, ptr %13, align 4
  %126 = sub i32 %125, %124
  store i32 %126, ptr %13, align 4
  br label %127

127:                                              ; preds = %120, %111
  %128 = load i32, ptr %13, align 4
  %129 = icmp sle i32 %128, 0
  br i1 %129, label %130, label %131

130:                                              ; preds = %127
  store i32 1, ptr %14, align 4
  br label %240

131:                                              ; preds = %127
  %132 = load ptr, ptr %6, align 8
  %133 = load ptr, ptr %7, align 8
  %134 = load ptr, ptr %8, align 8
  %135 = load i32, ptr %12, align 4
  %136 = load i32, ptr %13, align 4
  %137 = call zeroext i16 @elem_tlv(ptr noundef %132, ptr noundef %133, ptr noundef %134, i8 noundef zeroext 125, i32 noundef 0, i32 noundef 125, i32 noundef %135, i32 noundef %136, ptr noundef @.str.1123)
  %138 = zext i16 %137 to i32
  store i32 %138, ptr %11, align 4
  %139 = icmp ugt i32 %138, 0
  br i1 %139, label %140, label %147

140:                                              ; preds = %131
  %141 = load i32, ptr %11, align 4
  %142 = load i32, ptr %12, align 4
  %143 = add i32 %142, %141
  store i32 %143, ptr %12, align 4
  %144 = load i32, ptr %11, align 4
  %145 = load i32, ptr %13, align 4
  %146 = sub i32 %145, %144
  store i32 %146, ptr %13, align 4
  br label %147

147:                                              ; preds = %140, %131
  %148 = load i32, ptr %13, align 4
  %149 = icmp sle i32 %148, 0
  br i1 %149, label %150, label %151

150:                                              ; preds = %147
  store i32 1, ptr %14, align 4
  br label %240

151:                                              ; preds = %147
  %152 = load ptr, ptr %6, align 8
  %153 = load ptr, ptr %7, align 8
  %154 = load ptr, ptr %8, align 8
  %155 = load i32, ptr %12, align 4
  %156 = call zeroext i16 @elem_t(ptr noundef %152, ptr noundef %153, ptr noundef %154, i8 noundef zeroext -123, i32 noundef 0, i32 noundef 133, i32 noundef %155, ptr noundef null)
  %157 = zext i16 %156 to i32
  store i32 %157, ptr %11, align 4
  %158 = icmp ugt i32 %157, 0
  br i1 %158, label %159, label %166

159:                                              ; preds = %151
  %160 = load i32, ptr %11, align 4
  %161 = load i32, ptr %12, align 4
  %162 = add i32 %161, %160
  store i32 %162, ptr %12, align 4
  %163 = load i32, ptr %11, align 4
  %164 = load i32, ptr %13, align 4
  %165 = sub i32 %164, %163
  store i32 %165, ptr %13, align 4
  br label %166

166:                                              ; preds = %159, %151
  %167 = load i32, ptr %13, align 4
  %168 = icmp sle i32 %167, 0
  br i1 %168, label %169, label %170

169:                                              ; preds = %166
  store i32 1, ptr %14, align 4
  br label %240

170:                                              ; preds = %166
  %171 = load ptr, ptr %6, align 8
  %172 = load ptr, ptr %7, align 8
  %173 = load ptr, ptr %8, align 8
  %174 = load i32, ptr %12, align 4
  %175 = call zeroext i16 @elem_tv(ptr noundef %171, ptr noundef %172, ptr noundef %173, i8 noundef zeroext -121, i32 noundef 0, i32 noundef 135, i32 noundef %174, ptr noundef null)
  %176 = zext i16 %175 to i32
  store i32 %176, ptr %11, align 4
  %177 = icmp ugt i32 %176, 0
  br i1 %177, label %178, label %185

178:                                              ; preds = %170
  %179 = load i32, ptr %11, align 4
  %180 = load i32, ptr %12, align 4
  %181 = add i32 %180, %179
  store i32 %181, ptr %12, align 4
  %182 = load i32, ptr %11, align 4
  %183 = load i32, ptr %13, align 4
  %184 = sub i32 %183, %182
  store i32 %184, ptr %13, align 4
  br label %185

185:                                              ; preds = %178, %170
  %186 = load i32, ptr %13, align 4
  %187 = icmp sle i32 %186, 0
  br i1 %187, label %188, label %189

188:                                              ; preds = %185
  store i32 1, ptr %14, align 4
  br label %240

189:                                              ; preds = %185
  %190 = load ptr, ptr %6, align 8
  %191 = load ptr, ptr %7, align 8
  %192 = load ptr, ptr %8, align 8
  %193 = load i32, ptr %12, align 4
  %194 = load i32, ptr %13, align 4
  %195 = call zeroext i16 @elem_tlv(ptr noundef %190, ptr noundef %191, ptr noundef %192, i8 noundef zeroext 8, i32 noundef 0, i32 noundef 8, i32 noundef %193, i32 noundef %194, ptr noundef null)
  %196 = zext i16 %195 to i32
  store i32 %196, ptr %11, align 4
  %197 = icmp ugt i32 %196, 0
  br i1 %197, label %198, label %205

198:                                              ; preds = %189
  %199 = load i32, ptr %11, align 4
  %200 = load i32, ptr %12, align 4
  %201 = add i32 %200, %199
  store i32 %201, ptr %12, align 4
  %202 = load i32, ptr %11, align 4
  %203 = load i32, ptr %13, align 4
  %204 = sub i32 %203, %202
  store i32 %204, ptr %13, align 4
  br label %205

205:                                              ; preds = %198, %189
  %206 = load i32, ptr %13, align 4
  %207 = icmp sle i32 %206, 0
  br i1 %207, label %208, label %209

208:                                              ; preds = %205
  store i32 1, ptr %14, align 4
  br label %240

209:                                              ; preds = %205
  %210 = load ptr, ptr %6, align 8
  %211 = load ptr, ptr %7, align 8
  %212 = load ptr, ptr %8, align 8
  %213 = load i32, ptr %12, align 4
  %214 = call zeroext i16 @elem_tv(ptr noundef %210, ptr noundef %211, ptr noundef %212, i8 noundef zeroext -108, i32 noundef 0, i32 noundef 148, i32 noundef %213, ptr noundef null)
  %215 = zext i16 %214 to i32
  store i32 %215, ptr %11, align 4
  %216 = icmp ugt i32 %215, 0
  br i1 %216, label %217, label %224

217:                                              ; preds = %209
  %218 = load i32, ptr %11, align 4
  %219 = load i32, ptr %12, align 4
  %220 = add i32 %219, %218
  store i32 %220, ptr %12, align 4
  %221 = load i32, ptr %11, align 4
  %222 = load i32, ptr %13, align 4
  %223 = sub i32 %222, %221
  store i32 %223, ptr %13, align 4
  br label %224

224:                                              ; preds = %217, %209
  %225 = load i32, ptr %13, align 4
  %226 = icmp ugt i32 %225, 0
  br i1 %226, label %227, label %239

227:                                              ; preds = %224
  %228 = load ptr, ptr %7, align 8
  %229 = load ptr, ptr %8, align 8
  %230 = load ptr, ptr %6, align 8
  %231 = load i32, ptr %12, align 4
  %232 = load i32, ptr %13, align 4
  %233 = sub i32 %232, 0
  %234 = call ptr @proto_tree_add_expert(ptr noundef %228, ptr noundef %229, ptr noundef @ei_gsm_a_bssmap_extraneous_data, ptr noundef %230, i32 noundef %231, i32 noundef %233)
  %235 = load i32, ptr %13, align 4
  %236 = sub i32 %235, 0
  %237 = load i32, ptr %12, align 4
  %238 = add i32 %237, %236
  store i32 %238, ptr %12, align 4
  br label %239

239:                                              ; preds = %227, %224
  store i32 0, ptr %14, align 4
  br label %240

240:                                              ; preds = %239, %208, %188, %169, %150, %130, %110, %90, %71
  call void @llvm.lifetime.end.p0(i64 4, ptr %13) #5
  call void @llvm.lifetime.end.p0(i64 4, ptr %12) #5
  call void @llvm.lifetime.end.p0(i64 4, ptr %11) #5
  %241 = load i32, ptr %14, align 4
  switch i32 %241, label %243 [
    i32 0, label %242
    i32 1, label %242
  ]

242:                                              ; preds = %240, %240
  ret void

243:                                              ; preds = %240
  unreachable
}