; Function Attrs: null_pointer_is_valid sspstrong uwtable
define internal void @bssmap_cl3_info(ptr noundef %0, ptr noundef %1, ptr noundef %2, i32 noundef %3, i32 noundef %4) #1 {
  %6 = icmp sgt i32 %4, 0
  br i1 %6, label %7, label %13

7:                                                ; preds = %5
  %8 = tail call zeroext i16 @elem_tlv(ptr noundef %0, ptr noundef %1, ptr noundef %2, i8 noundef zeroext 5, i32 noundef 0, i32 noundef 5, i32 noundef %3, i32 noundef %4, ptr noundef null)
  %.not = icmp eq i16 %8, 0
  br i1 %.not, label %13, label %9

9:                                                ; preds = %7
  %10 = zext i16 %8 to i32
  %11 = add i32 %3, %10
  %12 = sub nsw i32 %4, %10
  br label %16

13:                                               ; preds = %7, %5
  %14 = tail call ptr @get_gsm_a_msg_string(i32 noundef 0, i32 noundef 5)
  %15 = tail call ptr (ptr, ptr, ptr, ptr, i32, i32, ptr, ...) @proto_tree_add_expert_format(ptr noundef %1, ptr noundef %2, ptr noundef nonnull @ei_gsm_a_bssmap_missing_mandatory_element, ptr noundef %0, i32 noundef %3, i32 noundef 0, ptr noundef nonnull @.str.139, i32 noundef 5, ptr noundef %14, ptr noundef nonnull @.str.137)
  br label %16

16:                                               ; preds = %13, %9
  %.0113 = phi i32 [ %11, %9 ], [ %3, %13 ]
  %.0 = phi i32 [ %12, %9 ], [ %4, %13 ]
  %17 = icmp sgt i32 %.0, 0
  br i1 %17, label %18, label %24

18:                                               ; preds = %16
  %19 = tail call zeroext i16 @elem_tlv(ptr noundef %0, ptr noundef %1, ptr noundef %2, i8 noundef zeroext 23, i32 noundef 0, i32 noundef 23, i32 noundef %.0113, i32 noundef %.0, ptr noundef null)
  %.not134 = icmp eq i16 %19, 0
  br i1 %.not134, label %24, label %20

20:                                               ; preds = %18
  %21 = zext i16 %19 to i32
  %22 = add i32 %.0113, %21
  %23 = sub nsw i32 %.0, %21
  br label %27

24:                                               ; preds = %18, %16
  %25 = tail call ptr @get_gsm_a_msg_string(i32 noundef 0, i32 noundef 23)
  %26 = tail call ptr (ptr, ptr, ptr, ptr, i32, i32, ptr, ...) @proto_tree_add_expert_format(ptr noundef %1, ptr noundef %2, ptr noundef nonnull @ei_gsm_a_bssmap_missing_mandatory_element, ptr noundef %0, i32 noundef %.0113, i32 noundef 0, ptr noundef nonnull @.str.139, i32 noundef 23, ptr noundef %25, ptr noundef nonnull @.str.137)
  br label %27

27:                                               ; preds = %24, %20
  %.1114 = phi i32 [ %22, %20 ], [ %.0113, %24 ]
  %.1 = phi i32 [ %23, %20 ], [ %.0, %24 ]
  %28 = icmp slt i32 %.1, 1
  br i1 %28, label %78, label %29

29:                                               ; preds = %27
  %30 = tail call zeroext i16 @elem_tv(ptr noundef %0, ptr noundef %1, ptr noundef %2, i8 noundef zeroext 33, i32 noundef 0, i32 noundef 33, i32 noundef %.1114, ptr noundef null)
  %31 = zext i16 %30 to i32
  %32 = sub nsw i32 %.1, %31
  %33 = icmp slt i32 %32, 1
  br i1 %33, label %78, label %34

34:                                               ; preds = %29
  %35 = add i32 %.1114, %31
  %36 = tail call zeroext i16 @elem_tlv(ptr noundef %0, ptr noundef %1, ptr noundef %2, i8 noundef zeroext 60, i32 noundef 0, i32 noundef 60, i32 noundef %35, i32 noundef %32, ptr noundef null)
  %37 = zext i16 %36 to i32
  %38 = sub nsw i32 %32, %37
  %39 = icmp slt i32 %38, 1
  br i1 %39, label %78, label %40

40:                                               ; preds = %34
  %41 = add i32 %35, %37
  %42 = tail call zeroext i16 @elem_tlv_e(ptr noundef %0, ptr noundef %1, ptr noundef %2, i8 noundef zeroext 73, i32 noundef 0, i32 noundef 73, i32 noundef %41, i32 noundef %38, ptr noundef null)
  %43 = zext i16 %42 to i32
  %44 = sub nsw i32 %38, %43
  %45 = icmp slt i32 %44, 1
  br i1 %45, label %78, label %46

46:                                               ; preds = %40
  %47 = add i32 %41, %43
  %48 = tail call zeroext i16 @elem_tlv(ptr noundef %0, ptr noundef %1, ptr noundef %2, i8 noundef zeroext 125, i32 noundef 0, i32 noundef 125, i32 noundef %47, i32 noundef %44, ptr noundef nonnull @.str.1123)
  %49 = zext i16 %48 to i32
  %50 = sub nsw i32 %44, %49
  %51 = icmp slt i32 %50, 1
  br i1 %51, label %78, label %52

52:                                               ; preds = %46
  %53 = add i32 %47, %49
  %54 = tail call zeroext i16 @elem_t(ptr noundef %0, ptr noundef %1, ptr noundef %2, i8 noundef zeroext -123, i32 noundef 0, i32 noundef 133, i32 noundef %53, ptr noundef null)
  %55 = zext i16 %54 to i32
  %56 = sub nsw i32 %50, %55
  %57 = icmp slt i32 %56, 1
  br i1 %57, label %78, label %58

58:                                               ; preds = %52
  %59 = add i32 %53, %55
  %60 = tail call zeroext i16 @elem_tv(ptr noundef %0, ptr noundef %1, ptr noundef %2, i8 noundef zeroext -121, i32 noundef 0, i32 noundef 135, i32 noundef %59, ptr noundef null)
  %61 = zext i16 %60 to i32
  %62 = sub nsw i32 %56, %61
  %63 = icmp slt i32 %62, 1
  br i1 %63, label %78, label %64

64:                                               ; preds = %58
  %65 = add i32 %59, %61
  %66 = tail call zeroext i16 @elem_tlv(ptr noundef %0, ptr noundef %1, ptr noundef %2, i8 noundef zeroext 8, i32 noundef 0, i32 noundef 8, i32 noundef %65, i32 noundef %62, ptr noundef null)
  %67 = zext i16 %66 to i32
  %68 = sub nsw i32 %62, %67
  %69 = icmp slt i32 %68, 1
  br i1 %69, label %78, label %70

70:                                               ; preds = %64
  %71 = add i32 %65, %67
  %72 = tail call zeroext i16 @elem_tv(ptr noundef %0, ptr noundef %1, ptr noundef %2, i8 noundef zeroext -108, i32 noundef 0, i32 noundef 148, i32 noundef %71, ptr noundef null)
  %73 = zext i16 %72 to i32
  %.not143 = icmp eq i32 %68, %73
  br i1 %.not143, label %78, label %74

74:                                               ; preds = %70
  %75 = sub nsw i32 %68, %73
  %76 = add i32 %71, %73
  %77 = tail call ptr @proto_tree_add_expert(ptr noundef %1, ptr noundef %2, ptr noundef nonnull @ei_gsm_a_bssmap_extraneous_data, ptr noundef %0, i32 noundef %76, i32 noundef %75)
  br label %78

78:                                               ; preds = %70, %74, %64, %58, %52, %46, %40, %34, %29, %27
  ret void
}